target datalayout = "e-m:e-p270:32:32-p271:32:32-p272:64:64-i64:64-i128:128-f80:128-n8:16:32:64-S128"
target triple = "x86_64-pc-linux-gnu"

%struct.mbedtls_mpi = type { i32, i64, ptr }

; Function Attrs: mustprogress uwtable
define hidden i32 @mbedtls_mpi_read_binary_le(ptr noundef %0, ptr noundef %1, i64 noundef %2) #1 {
  %4 = alloca ptr, align 8
  %5 = alloca ptr, align 8
  %6 = alloca i64, align 8
  %7 = alloca i32, align 4
  %8 = alloca i64, align 8
  %9 = alloca i64, align 8
  store ptr %0, ptr %4, align 8, !tbaa !3
  store ptr %1, ptr %5, align 8, !tbaa !26
  store i64 %2, ptr %6, align 8, !tbaa !16
  call void @llvm.lifetime.start.p0(i64 4, ptr %7) #10
  store i32 -110, ptr %7, align 4, !tbaa !19
  call void @llvm.lifetime.start.p0(i64 8, ptr %8) #10
  call void @llvm.lifetime.start.p0(i64 8, ptr %9) #10
  %10 = load i64, ptr %6, align 8, !tbaa !16
  %11 = udiv i64 %10, 8
  %12 = load i64, ptr %6, align 8, !tbaa !16
  %13 = urem i64 %12, 8
  %14 = icmp ne i64 %13, 0
  %15 = zext i1 %14 to i64
  %16 = add i64 %11, %15
  store i64 %16, ptr %9, align 8, !tbaa !16
  br label %17

17:                                               ; preds = %3
  %18 = load ptr, ptr %4, align 8, !tbaa !3
  %19 = load i64, ptr %9, align 8, !tbaa !16
  %20 = call noundef i32 @_ZL24mbedtls_mpi_resize_clearP11mbedtls_mpim(ptr noundef %18, i64 noundef %19)
  store i32 %20, ptr %7, align 4, !tbaa !19
  %21 = icmp ne i32 %20, 0
  br i1 %21, label %22, label %23

22:                                               ; preds = %17
  br label %52

23:                                               ; preds = %17
  br label %24

24:                                               ; preds = %23
  br label %25

25:                                               ; preds = %24
  store i64 0, ptr %8, align 8, !tbaa !16
  br label %26

26:                                               ; preds = %48, %25
  %27 = load i64, ptr %8, align 8, !tbaa !16
  %28 = load i64, ptr %6, align 8, !tbaa !16
  %29 = icmp ult i64 %27, %28
  br i1 %29, label %30, label %51

30:                                               ; preds = %26
  %31 = load ptr, ptr %5, align 8, !tbaa !26
  %32 = load i64, ptr %8, align 8, !tbaa !16
  %33 = getelementptr inbounds nuw i8, ptr %31, i64 %32
  %34 = load i8, ptr %33, align 1, !tbaa !21
  %35 = zext i8 %34 to i64
  %36 = load i64, ptr %8, align 8, !tbaa !16
  %37 = urem i64 %36, 8
  %38 = shl i64 %37, 3
  %39 = shl i64 %35, %38
  %40 = load ptr, ptr %4, align 8, !tbaa !3
  %41 = getelementptr inbounds nuw %struct.mbedtls_mpi, ptr %40, i32 0, i32 2
  %42 = load ptr, ptr %41, align 8, !tbaa !14
  %43 = load i64, ptr %8, align 8, !tbaa !16
  %44 = udiv i64 %43, 8
  %45 = getelementptr inbounds nuw i64, ptr %42, i64 %44
  %46 = load i64, ptr %45, align 8, !tbaa !16
  %47 = or i64 %46, %39
  store i64 %47, ptr %45, align 8, !tbaa !16
  br label %48

48:                                               ; preds = %30
  %49 = load i64, ptr %8, align 8, !tbaa !16
  %50 = add i64 %49, 1
  store i64 %50, ptr %8, align 8, !tbaa !16
  br label %26, !llvm.loop !36

51:                                               ; preds = %26
  br label %52

52:                                               ; preds = %51, %22
  %53 = load i32, ptr %7, align 4, !tbaa !19
  call void @llvm.lifetime.end.p0(i64 8, ptr %9) #10
  call void @llvm.lifetime.end.p0(i64 8, ptr %8) #10
  call void @llvm.lifetime.end.p0(i64 4, ptr %7) #10
  ret i32 %53
}