; Function Attrs: mustprogress uwtable
define hidden noundef range(i32 -16, 1) i32 @mbedtls_mpi_read_binary_le(ptr noundef captures(address_is_null) %0, ptr noundef readonly captures(none) %1, i64 noundef %2) local_unnamed_addr #1 {
  %4 = lshr i64 %2, 3
  %5 = and i64 %2, 7
  %6 = icmp ne i64 %5, 0
  %7 = zext i1 %6 to i64
  %8 = add nuw nsw i64 %4, %7
  %9 = tail call fastcc noundef i32 @_ZL24mbedtls_mpi_resize_clearP11mbedtls_mpim(ptr noundef %0, i64 noundef %8)
  %.not = icmp eq i32 %9, 0
  %10 = icmp ne i64 %2, 0
  %or.cond = and i1 %.not, %10
  br i1 %or.cond, label %.lr.ph, label %.loopexit

.lr.ph:                                           ; preds = %3
  %11 = getelementptr inbounds nuw i8, ptr %0, i64 16
  %12 = load ptr, ptr %11, align 8, !tbaa !11
  br label %13

13:                                               ; preds = %.lr.ph, %13
  %.012 = phi i64 [ 0, %.lr.ph ], [ %24, %13 ]
  %14 = getelementptr inbounds nuw i8, ptr %1, i64 %.012
  %15 = load i8, ptr %14, align 1, !tbaa !21
  %16 = zext i8 %15 to i64
  %17 = shl i64 %.012, 3
  %18 = and i64 %17, 56
  %19 = shl nuw i64 %16, %18
  %20 = lshr i64 %.012, 3
  %21 = getelementptr inbounds nuw i64, ptr %12, i64 %20
  %22 = load i64, ptr %21, align 8, !tbaa !13
  %23 = or i64 %22, %19
  store i64 %23, ptr %21, align 8, !tbaa !13
  %24 = add nuw i64 %.012, 1
  %exitcond.not = icmp eq i64 %24, %2
  br i1 %exitcond.not, label %.loopexit, label %13, !llvm.loop !30

.loopexit:                                        ; preds = %13, %3
  ret i32 %9
}